0000000000003168 s EH_frame1
0000000000002fdc s GCC_except_table0
0000000000002ff0 s GCC_except_table1
0000000000003050 s GCC_except_table10
0000000000003060 s GCC_except_table11
0000000000003064 s GCC_except_table12
0000000000003068 s GCC_except_table13
0000000000003088 s GCC_except_table14
0000000000003098 s GCC_except_table15
0000000000003004 s GCC_except_table2
0000000000003008 s GCC_except_table3
000000000000300c s GCC_except_table4
000000000000301c s GCC_except_table5
0000000000003020 s GCC_except_table6
0000000000003024 s GCC_except_table7
0000000000003038 s GCC_except_table8
000000000000304c s GCC_except_table9
00000000000030a8 s L.str.0
00000000000030e0 s L.str.1
0000000000000420 T _JNL_ClearLastError
0000000000000834 T _JNL_Free
0000000000000404 T _JNL_GetLastError
0000000000000754 T _JNL_GetRegistry
0000000000005508 s _Mod.init
0000000000003134 s __GLOBAL__sub_I_Exporter.cpp
                 U __Unwind_Resume
00000000000030f8 s __Z41__static_initialization_and_destruction_0v
0000000000005550 b __ZGVZN3jnl19get_global_registryB5cxx11EvE8registry
0000000000000664 T __ZN3jnl14register_classERK16JNLClassRegistry
00000000000005cc T __ZN3jnl19get_global_registryB5cxx11Ev
0000000000000448 T __ZN3jnl9set_errorEPKc
000000000000176c T __ZN9__gnu_cxx16__aligned_bufferISt4pairIKNSt7__cxx1112basic_stringIcSt11char_traitsIcESaIcEEE16JNLClassRegistryEE6_M_ptrEv
00000000000020e0 T __ZN9__gnu_cxx16__aligned_bufferISt4pairIKNSt7__cxx1112basic_stringIcSt11char_traitsIcESaIcEEE16JNLClassRegistryEE7_M_addrEv
0000000000002a6c T __ZNK9__gnu_cxx16__aligned_bufferISt4pairIKNSt7__cxx1112basic_stringIcSt11char_traitsIcESaIcEEE16JNLClassRegistryEE6_M_ptrEv
0000000000002b74 T __ZNK9__gnu_cxx16__aligned_bufferISt4pairIKNSt7__cxx1112basic_stringIcSt11char_traitsIcESaIcEEE16JNLClassRegistryEE7_M_addrEv
0000000000001474 T __ZNKSt10_HashtableINSt7__cxx1112basic_stringIcSt11char_traitsIcESaIcEEESt4pairIKS5_16JNLClassRegistryESaIS9_ENSt8__detail10_Select1stESt8equal_toIS5_ESt4hashIS5_ENSB_18_Mod_range_hashingENSB_20_Default_ranged_hashENSB_20_Prime_rehash_policyENSB_17_Hashtable_traitsILb1ELb0ELb1EEEE12_M_find_nodeEmRS7_m
0000000000001f4c T __ZNKSt10_HashtableINSt7__cxx1112basic_stringIcSt11char_traitsIcESaIcEEESt4pairIKS5_16JNLClassRegistryESaIS9_ENSt8__detail10_Select1stESt8equal_toIS5_ESt4hashIS5_ENSB_18_Mod_range_hashingENSB_20_Default_ranged_hashENSB_20_Prime_rehash_policyENSB_17_Hashtable_traitsILb1ELb0ELb1EEEE12_M_locate_trIS5_EENSM_15__location_typeERKT_
0000000000001e18 T __ZNKSt10_HashtableINSt7__cxx1112basic_stringIcSt11char_traitsIcESaIcEEESt4pairIKS5_16JNLClassRegistryESaIS9_ENSt8__detail10_Select1stESt8equal_toIS5_ESt4hashIS5_ENSB_18_Mod_range_hashingENSB_20_Default_ranged_hashENSB_20_Prime_rehash_policyENSB_17_Hashtable_traitsILb1ELb0ELb1EEEE13_M_store_codeERNSB_16_Hash_node_valueIS9_Lb1EEEm
0000000000002350 T __ZNKSt10_HashtableINSt7__cxx1112basic_stringIcSt11char_traitsIcESaIcEEESt4pairIKS5_16JNLClassRegistryESaIS9_ENSt8__detail10_Select1stESt8equal_toIS5_ESt4hashIS5_ENSB_18_Mod_range_hashingENSB_20_Default_ranged_hashENSB_20_Prime_rehash_policyENSB_17_Hashtable_traitsILb1ELb0ELb1EEEE15_M_bucket_indexERKNSB_16_Hash_node_valueIS9_Lb1EEE
0000000000001444 T __ZNKSt10_HashtableINSt7__cxx1112basic_stringIcSt11char_traitsIcESaIcEEESt4pairIKS5_16JNLClassRegistryESaIS9_ENSt8__detail10_Select1stESt8equal_toIS5_ESt4hashIS5_ENSB_18_Mod_range_hashingENSB_20_Default_ranged_hashENSB_20_Prime_rehash_policyENSB_17_Hashtable_traitsILb1ELb0ELb1EEEE15_M_bucket_indexEm
0000000000002088 T __ZNKSt10_HashtableINSt7__cxx1112basic_stringIcSt11char_traitsIcESaIcEEESt4pairIKS5_16JNLClassRegistryESaIS9_ENSt8__detail10_Select1stESt8equal_toIS5_ESt4hashIS5_ENSB_18_Mod_range_hashingENSB_20_Default_ranged_hashENSB_20_Prime_rehash_policyENSB_17_Hashtable_traitsILb1ELb0ELb1EEEE15__location_type7_M_nodeEv
0000000000001710 T __ZNKSt10_HashtableINSt7__cxx1112basic_stringIcSt11char_traitsIcESaIcEEESt4pairIKS5_16JNLClassRegistryESaIS9_ENSt8__detail10_Select1stESt8equal_toIS5_ESt4hashIS5_ENSB_18_Mod_range_hashingENSB_20_Default_ranged_hashENSB_20_Prime_rehash_policyENSB_17_Hashtable_traitsILb1ELb0ELb1EEEE15__location_typecvNSB_14_Node_iteratorIS9_Lb0ELb1EEEEv
00000000000019c8 T __ZNKSt10_HashtableINSt7__cxx1112basic_stringIcSt11char_traitsIcESaIcEEESt4pairIKS5_16JNLClassRegistryESaIS9_ENSt8__detail10_Select1stESt8equal_toIS5_ESt4hashIS5_ENSB_18_Mod_range_hashingENSB_20_Default_ranged_hashENSB_20_Prime_rehash_policyENSB_17_Hashtable_traitsILb1ELb0ELb1EEEE19_M_find_before_nodeEmRS7_m
000000000000188c T __ZNKSt10_HashtableINSt7__cxx1112basic_stringIcSt11char_traitsIcESaIcEEESt4pairIKS5_16JNLClassRegistryESaIS9_ENSt8__detail10_Select1stESt8equal_toIS5_ESt4hashIS5_ENSB_18_Mod_range_hashingENSB_20_Default_ranged_hashENSB_20_Prime_rehash_policyENSB_17_Hashtable_traitsILb1ELb0ELb1EEEE21_M_uses_single_bucketEPPNSB_15_Hash_node_baseE
000000000000216c T __ZNKSt10_HashtableINSt7__cxx1112basic_stringIcSt11char_traitsIcESaIcEEESt4pairIKS5_16JNLClassRegistryESaIS9_ENSt8__detail10_Select1stESt8equal_toIS5_ESt4hashIS5_ENSB_18_Mod_range_hashingENSB_20_Default_ranged_hashENSB_20_Prime_rehash_policyENSB_17_Hashtable_traitsILb1ELb0ELb1EEEE22_M_find_before_node_trIS5_EEPNSB_15_Hash_node_baseEmRKT_m
0000000000002380 T __ZNKSt10_HashtableINSt7__cxx1112basic_stringIcSt11char_traitsIcESaIcEEESt4pairIKS5_16JNLClassRegistryESaIS9_ENSt8__detail10_Select1stESt8equal_toIS5_ESt4hashIS5_ENSB_18_Mod_range_hashingENSB_20_Default_ranged_hashENSB_20_Prime_rehash_policyENSB_17_Hashtable_traitsILb1ELb0ELb1EEEE4sizeEv
0000000000000edc T __ZNKSt10_HashtableINSt7__cxx1112basic_stringIcSt11char_traitsIcESaIcEEESt4pairIKS5_16JNLClassRegistryESaIS9_ENSt8__detail10_Select1stESt8equal_toIS5_ESt4hashIS5_ENSB_18_Mod_range_hashingENSB_20_Default_ranged_hashENSB_20_Prime_rehash_policyENSB_17_Hashtable_traitsILb1ELb0ELb1EEEE8_M_beginEv
00000000000016e0 T __ZNKSt10_HashtableINSt7__cxx1112basic_stringIcSt11char_traitsIcESaIcEEESt4pairIKS5_16JNLClassRegistryESaIS9_ENSt8__detail10_Select1stESt8equal_toIS5_ESt4hashIS5_ENSB_18_Mod_range_hashingENSB_20_Default_ranged_hashENSB_20_Prime_rehash_policyENSB_17_Hashtable_traitsILb1ELb0ELb1EEEE9_M_locateERS7_
0000000000001954 T __ZNKSt15__str_hash_baseIcSaIcENSt7__cxx1112basic_stringIcSt11char_traitsIcES0_EEEclERKS5_
0000000000000c78 T __ZNKSt7__cxx1112basic_stringIcSt11char_traitsIcESaIcEE11_M_is_localEv
00000000000011a4 T __ZNKSt7__cxx1112basic_stringIcSt11char_traitsIcESaIcEE13_M_local_dataEv
0000000000000d20 T __ZNKSt7__cxx1112basic_stringIcSt11char_traitsIcESaIcEE4dataEv
00000000000002b4 T __ZNKSt7__cxx1112basic_stringIcSt11char_traitsIcESaIcEE4sizeEv
00000000000009dc T __ZNKSt7__cxx1112basic_stringIcSt11char_traitsIcESaIcEE6lengthEv
0000000000000be0 T __ZNKSt7__cxx1112basic_stringIcSt11char_traitsIcESaIcEE7_M_dataEv
0000000000000aa0 T __ZNKSt7__cxx1112basic_stringIcSt11char_traitsIcESaIcEE8max_sizeEv
0000000000001354 T __ZNKSt8__detail10_Hash_nodeISt4pairIKNSt7__cxx1112basic_stringIcSt11char_traitsIcESaIcEEE16JNLClassRegistryELb1EE7_M_nextEv
00000000000026e4 T __ZNKSt8__detail10_Select1stclIRKSt4pairIKNSt7__cxx1112basic_stringIcSt11char_traitsIcESaIcEEE16JNLClassRegistryEEEONS0_10__1st_typeIT_E4typeEOSF_
0000000000000bb0 T __ZNKSt8__detail14_Node_iteratorISt4pairIKNSt7__cxx1112basic_stringIcSt11char_traitsIcESaIcEEE16JNLClassRegistryELb0ELb1EEptEv
0000000000001420 T __ZNKSt8__detail15_Hash_code_baseINSt7__cxx1112basic_stringIcSt11char_traitsIcESaIcEEESt4pairIKS6_16JNLClassRegistryENS_10_Select1stESt4hashIS6_ENS_18_Mod_range_hashingENS_20_Default_ranged_hashELb1EE12_M_hash_codeERS8_
0000000000002320 T __ZNKSt8__detail15_Hash_code_baseINSt7__cxx1112basic_stringIcSt11char_traitsIcESaIcEEESt4pairIKS6_16JNLClassRegistryENS_10_Select1stESt4hashIS6_ENS_18_Mod_range_hashingENS_20_Default_ranged_hashELb1EE15_M_bucket_indexERKNS_16_Hash_node_valueISA_Lb1EEEm
000000000000199c T __ZNKSt8__detail15_Hash_code_baseINSt7__cxx1112basic_stringIcSt11char_traitsIcESaIcEEESt4pairIKS6_16JNLClassRegistryENS_10_Select1stESt4hashIS6_ENS_18_Mod_range_hashingENS_20_Default_ranged_hashELb1EE15_M_bucket_indexEmm
0000000000002434 T __ZNKSt8__detail15_Hash_code_baseINSt7__cxx1112basic_stringIcSt11char_traitsIcESaIcEEESt4pairIKS6_16JNLClassRegistryENS_10_Select1stESt4hashIS6_ENS_18_Mod_range_hashingENS_20_Default_ranged_hashELb1EE15_M_hash_code_trIS6_EEmRKT_
0000000000002484 T __ZNKSt8__detail15_Hashtable_baseINSt7__cxx1112basic_stringIcSt11char_traitsIcESaIcEEESt4pairIKS6_16JNLClassRegistryENS_10_Select1stESt8equal_toIS6_ESt4hashIS6_ENS_18_Mod_range_hashingENS_20_Default_ranged_hashENS_17_Hashtable_traitsILb1ELb0ELb1EEEE12_M_equals_trIS6_EEbRKT_mRKNS_16_Hash_node_valueISA_Lb1EEE
00000000000023c8 T __ZNKSt8__detail15_Hashtable_baseINSt7__cxx1112basic_stringIcSt11char_traitsIcESaIcEEESt4pairIKS6_16JNLClassRegistryENS_10_Select1stESt8equal_toIS6_ESt4hashIS6_ENS_18_Mod_range_hashingENS_20_Default_ranged_hashENS_17_Hashtable_traitsILb1ELb0ELb1EEEE16_M_key_equals_trIS6_EEbRKT_RKNS_16_Hash_node_valueISA_Lb1EEE
00000000000026d0 T __ZNKSt8__detail15_Hashtable_baseINSt7__cxx1112basic_stringIcSt11char_traitsIcESaIcEEESt4pairIKS6_16JNLClassRegistryENS_10_Select1stESt8equal_toIS6_ESt4hashIS6_ENS_18_Mod_range_hashingENS_20_Default_ranged_hashENS_17_Hashtable_traitsILb1ELb0ELb1EEEE5_M_eqEv
0000000000000334 T __ZNKSt8__detail18_Mod_range_hashingclEmm
                 U __ZNKSt8__detail20_Prime_rehash_policy14_M_need_rehashEmmm
0000000000000390 T __ZNKSt8__detail20_Prime_rehash_policy8_M_stateEv
0000000000002704 T __ZNKSt8equal_toINSt7__cxx1112basic_stringIcSt11char_traitsIcESaIcEEEEclERKS5_S8_
00000000000001d4 T __ZNSt10_Hash_impl4hashEPKvmm
0000000000001508 T __ZNSt10_HashtableINSt7__cxx1112basic_stringIcSt11char_traitsIcESaIcEEESt4pairIKS5_16JNLClassRegistryESaIS9_ENSt8__detail10_Select1stESt8equal_toIS5_ESt4hashIS5_ENSB_18_Mod_range_hashingENSB_20_Default_ranged_hashENSB_20_Prime_rehash_policyENSB_17_Hashtable_traitsILb1ELb0ELb1EEEE12_Scoped_nodeC1IJRKSt21piecewise_construct_tSt5tupleIJOS5_EESS_IJEEEEEPNSB_16_Hashtable_allocISaINSB_10_Hash_nodeIS9_Lb1EEEEEEDpOT_
0000000000001574 T __ZNSt10_HashtableINSt7__cxx1112basic_stringIcSt11char_traitsIcESaIcEEESt4pairIKS5_16JNLClassRegistryESaIS9_ENSt8__detail10_Select1stESt8equal_toIS5_ESt4hashIS5_ENSB_18_Mod_range_hashingENSB_20_Default_ranged_hashENSB_20_Prime_rehash_policyENSB_17_Hashtable_traitsILb1ELb0ELb1EEEE12_Scoped_nodeD1Ev
00000000000022c8 T __ZNSt10_HashtableINSt7__cxx1112basic_stringIcSt11char_traitsIcESaIcEEESt4pairIKS5_16JNLClassRegistryESaIS9_ENSt8__detail10_Select1stESt8equal_toIS5_ESt4hashIS5_ENSB_18_Mod_range_hashingENSB_20_Default_ranged_hashENSB_20_Prime_rehash_policyENSB_17_Hashtable_traitsILb1ELb0ELb1EEEE19_M_allocate_bucketsEm
00000000000013d4 T __ZNSt10_HashtableINSt7__cxx1112basic_stringIcSt11char_traitsIcESaIcEEESt4pairIKS5_16JNLClassRegistryESaIS9_ENSt8__detail10_Select1stESt8equal_toIS5_ESt4hashIS5_ENSB_18_Mod_range_hashingENSB_20_Default_ranged_hashENSB_20_Prime_rehash_policyENSB_17_Hashtable_traitsILb1ELb0ELb1EEEE21_M_deallocate_bucketsEPPNSB_15_Hash_node_baseEm
0000000000000f44 T __ZNSt10_HashtableINSt7__cxx1112basic_stringIcSt11char_traitsIcESaIcEEESt4pairIKS5_16JNLClassRegistryESaIS9_ENSt8__detail10_Select1stESt8equal_toIS5_ESt4hashIS5_ENSB_18_Mod_range_hashingENSB_20_Default_ranged_hashENSB_20_Prime_rehash_policyENSB_17_Hashtable_traitsILb1ELb0ELb1EEEE21_M_deallocate_bucketsEv
00000000000015b8 T __ZNSt10_HashtableINSt7__cxx1112basic_stringIcSt11char_traitsIcESaIcEEESt4pairIKS5_16JNLClassRegistryESaIS9_ENSt8__detail10_Select1stESt8equal_toIS5_ESt4hashIS5_ENSB_18_Mod_range_hashingENSB_20_Default_ranged_hashENSB_20_Prime_rehash_policyENSB_17_Hashtable_traitsILb1ELb0ELb1EEEE21_M_insert_unique_nodeEmmPNSB_10_Hash_nodeIS9_Lb1EEEm
0000000000001e40 T __ZNSt10_HashtableINSt7__cxx1112basic_stringIcSt11char_traitsIcESaIcEEESt4pairIKS5_16JNLClassRegistryESaIS9_ENSt8__detail10_Select1stESt8equal_toIS5_ESt4hashIS5_ENSB_18_Mod_range_hashingENSB_20_Default_ranged_hashENSB_20_Prime_rehash_policyENSB_17_Hashtable_traitsILb1ELb0ELb1EEEE22_M_insert_bucket_beginEmPNSB_10_Hash_nodeIS9_Lb1EEE
0000000000002398 T __ZNSt10_HashtableINSt7__cxx1112basic_stringIcSt11char_traitsIcESaIcEEESt4pairIKS5_16JNLClassRegistryESaIS9_ENSt8__detail10_Select1stESt8equal_toIS5_ESt4hashIS5_ENSB_18_Mod_range_hashingENSB_20_Default_ranged_hashENSB_20_Prime_rehash_policyENSB_17_Hashtable_traitsILb1ELb0ELb1EEEE22__small_size_thresholdEv
00000000000010fc T __ZNSt10_HashtableINSt7__cxx1112basic_stringIcSt11char_traitsIcESaIcEEESt4pairIKS5_16JNLClassRegistryESaIS9_ENSt8__detail10_Select1stESt8equal_toIS5_ESt4hashIS5_ENSB_18_Mod_range_hashingENSB_20_Default_ranged_hashENSB_20_Prime_rehash_policyENSB_17_Hashtable_traitsILb1ELb0ELb1EEEE3endEv
00000000000010c8 T __ZNSt10_HashtableINSt7__cxx1112basic_stringIcSt11char_traitsIcESaIcEEESt4pairIKS5_16JNLClassRegistryESaIS9_ENSt8__detail10_Select1stESt8equal_toIS5_ESt4hashIS5_ENSB_18_Mod_range_hashingENSB_20_Default_ranged_hashENSB_20_Prime_rehash_policyENSB_17_Hashtable_traitsILb1ELb0ELb1EEEE4findERS7_
0000000000001c9c T __ZNSt10_HashtableINSt7__cxx1112basic_stringIcSt11char_traitsIcESaIcEEESt4pairIKS5_16JNLClassRegistryESaIS9_ENSt8__detail10_Select1stESt8equal_toIS5_ESt4hashIS5_ENSB_18_Mod_range_hashingENSB_20_Default_ranged_hashENSB_20_Prime_rehash_policyENSB_17_Hashtable_traitsILb1ELb0ELb1EEEE9_M_rehashEmSt17integral_constantIbLb1EE
000000000000051c T __ZNSt10_HashtableINSt7__cxx1112basic_stringIcSt11char_traitsIcESaIcEEESt4pairIKS5_16JNLClassRegistryESaIS9_ENSt8__detail10_Select1stESt8equal_toIS5_ESt4hashIS5_ENSB_18_Mod_range_hashingENSB_20_Default_ranged_hashENSB_20_Prime_rehash_policyENSB_17_Hashtable_traitsILb1ELb0ELb1EEEEC1Ev
0000000000000ad8 T __ZNSt10_HashtableINSt7__cxx1112basic_stringIcSt11char_traitsIcESaIcEEESt4pairIKS5_16JNLClassRegistryESaIS9_ENSt8__detail10_Select1stESt8equal_toIS5_ESt4hashIS5_ENSB_18_Mod_range_hashingENSB_20_Default_ranged_hashENSB_20_Prime_rehash_policyENSB_17_Hashtable_traitsILb1ELb0ELb1EEEED1Ev
0000000000002bc0 T __ZNSt10_Head_baseILm0EONSt7__cxx1112basic_stringIcSt11char_traitsIcESaIcEEELb0EE7_M_headERS7_
00000000000024d4 T __ZNSt10_Head_baseILm0EONSt7__cxx1112basic_stringIcSt11char_traitsIcESaIcEEELb0EEC2IS5_EEOT_
0000000000002ba4 T __ZNSt11_Tuple_implILm0EJONSt7__cxx1112basic_stringIcSt11char_traitsIcESaIcEEEEE7_M_headERS7_
000000000000291c T __ZNSt11_Tuple_implILm0EJONSt7__cxx1112basic_stringIcSt11char_traitsIcESaIcEEEEEC2EOS7_
0000000000002298 T __ZNSt11_Tuple_implILm0EJONSt7__cxx1112basic_stringIcSt11char_traitsIcESaIcEEEEEC2IS5_EEOT_
0000000000000180 T __ZNSt11char_traitsIcE4copyEPcPKcm
00000000000000f4 T __ZNSt11char_traitsIcE6assignERcRKc
0000000000000160 T __ZNSt11char_traitsIcE6lengthEPKc
000000000000011c T __ZNSt11char_traitsIcE7compareEPKcS2_m
0000000000000b64 T __ZNSt13unordered_mapINSt7__cxx1112basic_stringIcSt11char_traitsIcESaIcEEE16JNLClassRegistrySt4hashIS5_ESt8equal_toIS5_ESaISt4pairIKS5_S6_EEE3endEv
0000000000000b40 T __ZNSt13unordered_mapINSt7__cxx1112basic_stringIcSt11char_traitsIcESaIcEEE16JNLClassRegistrySt4hashIS5_ESt8equal_toIS5_ESaISt4pairIKS5_S6_EEE4findERSC_
000000000000058c T __ZNSt13unordered_mapINSt7__cxx1112basic_stringIcSt11char_traitsIcESaIcEEE16JNLClassRegistrySt4hashIS5_ESt8equal_toIS5_ESaISt4pairIKS5_S6_EEEC1Ev
00000000000005ac T __ZNSt13unordered_mapINSt7__cxx1112basic_stringIcSt11char_traitsIcESaIcEEE16JNLClassRegistrySt4hashIS5_ESt8equal_toIS5_ESaISt4pairIKS5_S6_EEED1Ev
0000000000000b14 T __ZNSt13unordered_mapINSt7__cxx1112basic_stringIcSt11char_traitsIcESaIcEEE16JNLClassRegistrySt4hashIS5_ESt8equal_toIS5_ESaISt4pairIKS5_S6_EEEixEOS5_
00000000000027bc T __ZNSt15__new_allocatorINSt8__detail10_Hash_nodeISt4pairIKNSt7__cxx1112basic_stringIcSt11char_traitsIcESaIcEEE16JNLClassRegistryELb1EEEE10deallocateEPSC_m
0000000000002830 T __ZNSt15__new_allocatorINSt8__detail10_Hash_nodeISt4pairIKNSt7__cxx1112basic_stringIcSt11char_traitsIcESaIcEEE16JNLClassRegistryELb1EEEE8allocateEmPKv
00000000000027fc T __ZNSt15__new_allocatorIPNSt8__detail15_Hash_node_baseEE10deallocateEPS2_m
0000000000002aa4 T __ZNSt15__new_allocatorIPNSt8__detail15_Hash_node_baseEE8allocateEmPKv
0000000000002458 T __ZNSt15__new_allocatorIcE10deallocateEPcm
000000000000272c T __ZNSt15__new_allocatorIcE8allocateEmPKv
0000000000001788 T __ZNSt19__ptr_traits_ptr_toIPKcS0_Lb0EE10pointer_toERS0_
0000000000002134 T __ZNSt19__ptr_traits_ptr_toIPNSt8__detail10_Hash_nodeISt4pairIKNSt7__cxx1112basic_stringIcSt11char_traitsIcESaIcEEE16JNLClassRegistryELb1EEESC_Lb0EE10pointer_toERSC_
00000000000023ac T __ZNSt19__ptr_traits_ptr_toIPNSt8__detail15_Hash_node_baseES1_Lb0EE10pointer_toERS1_
0000000000002150 T __ZNSt19__ptr_traits_ptr_toIPPNSt8__detail15_Hash_node_baseES2_Lb0EE10pointer_toERS2_
0000000000000240 T __ZNSt19__ptr_traits_ptr_toIPccLb0EE10pointer_toERc
0000000000000090 T __ZNSt20bad_array_new_lengthC1Ev
                 U __ZNSt20bad_array_new_lengthD1Ev
0000000000002944 T __ZNSt4pairIKNSt7__cxx1112basic_stringIcSt11char_traitsIcESaIcEEE16JNLClassRegistryEC1IJOS5_EJEEESt21piecewise_construct_tSt5tupleIJDpT_EESC_IJDpT0_EE
0000000000002a00 T __ZNSt4pairIKNSt7__cxx1112basic_stringIcSt11char_traitsIcESaIcEEE16JNLClassRegistryEC1IJOS5_EJLm0EEJEJEEERSt5tupleIJDpT_EERSB_IJDpT1_EESt12_Index_tupleIJXspT0_EEESK_IJXspT2_EEE
00000000000020f4 T __ZNSt4pairIKNSt7__cxx1112basic_stringIcSt11char_traitsIcESaIcEEE16JNLClassRegistryED1Ev
0000000000002500 T __ZNSt5tupleIJONSt7__cxx1112basic_stringIcSt11char_traitsIcESaIcEEEEEC1EOS7_
00000000000019fc T __ZNSt5tupleIJONSt7__cxx1112basic_stringIcSt11char_traitsIcESaIcEEEEEC1IJS5_EEEDpOT_
0000000000001128 T __ZNSt7__cxx1112basic_stringIcSt11char_traitsIcESaIcEE10_M_destroyEm
0000000000000c1c T __ZNSt7__cxx1112basic_stringIcSt11char_traitsIcESaIcEE10_M_disposeEv
0000000000000cfc T __ZNSt7__cxx1112basic_stringIcSt11char_traitsIcESaIcEE11_M_capacityEm
00000000000017a4 T __ZNSt7__cxx1112basic_stringIcSt11char_traitsIcESaIcEE11_S_allocateERS3_m
000000000000025c T __ZNSt7__cxx1112basic_stringIcSt11char_traitsIcESaIcEE12_Alloc_hiderC1EPcOS3_
0000000000000d3c T __ZNSt7__cxx1112basic_stringIcSt11char_traitsIcESaIcEE12_Alloc_hiderC1EPcRKS3_
0000000000000200 T __ZNSt7__cxx1112basic_stringIcSt11char_traitsIcESaIcEE12_Alloc_hiderD1Ev
0000000000000de4 T __ZNSt7__cxx1112basic_stringIcSt11char_traitsIcESaIcEE12_M_constructIPKcEEvT_S8_St20forward_iterator_tag
0000000000000220 T __ZNSt7__cxx1112basic_stringIcSt11char_traitsIcESaIcEE13_M_local_dataEv
0000000000000854 T __ZNSt7__cxx1112basic_stringIcSt11char_traitsIcESaIcEE13_M_set_lengthEm
000000000000130c T __ZNSt7__cxx1112basic_stringIcSt11char_traitsIcESaIcEE13_S_copy_charsIPKcEEvPcT_S9_
0000000000000c64 T __ZNSt7__cxx1112basic_stringIcSt11char_traitsIcESaIcEE16_M_get_allocatorEv
0000000000000cd8 T __ZNSt7__cxx1112basic_stringIcSt11char_traitsIcESaIcEE7_M_dataEPc
00000000000012c0 T __ZNSt7__cxx1112basic_stringIcSt11char_traitsIcESaIcEE7_S_copyEPcPKcm
00000000000011c4 T __ZNSt7__cxx1112basic_stringIcSt11char_traitsIcESaIcEE9_M_createERmm
0000000000000bf8 T __ZNSt7__cxx1112basic_stringIcSt11char_traitsIcESaIcEE9_M_lengthEm
00000000000008c4 T __ZNSt7__cxx1112basic_stringIcSt11char_traitsIcESaIcEEC1EOS4_
00000000000009f8 T __ZNSt7__cxx1112basic_stringIcSt11char_traitsIcESaIcEEC1IS3_EEPKcRKS3_
000000000000089c T __ZNSt7__cxx1112basic_stringIcSt11char_traitsIcESaIcEED1Ev
0000000000001a2c T __ZNSt8__detail10_Hash_nodeISt4pairIKNSt7__cxx1112basic_stringIcSt11char_traitsIcESaIcEEE16JNLClassRegistryELb1EEC1Ev
0000000000001744 T __ZNSt8__detail14_Node_iteratorISt4pairIKNSt7__cxx1112basic_stringIcSt11char_traitsIcESaIcEEE16JNLClassRegistryELb0ELb1EEC1EPNS_10_Hash_nodeISA_Lb1EEE
0000000000000494 T __ZNSt8__detail15_Hash_code_baseINSt7__cxx1112basic_stringIcSt11char_traitsIcESaIcEEESt4pairIKS6_16JNLClassRegistryENS_10_Select1stESt4hashIS6_ENS_18_Mod_range_hashingENS_20_Default_ranged_hashELb1EEC2Ev
0000000000000318 T __ZNSt8__detail15_Hash_node_baseC1Ev
00000000000002fc T __ZNSt8__detail15_Hash_node_baseC2Ev
00000000000004a8 T __ZNSt8__detail15_Hashtable_baseINSt7__cxx1112basic_stringIcSt11char_traitsIcESaIcEEESt4pairIKS6_16JNLClassRegistryENS_10_Select1stESt8equal_toIS6_ESt4hashIS6_ENS_18_Mod_range_hashingENS_20_Default_ranged_hashENS_17_Hashtable_traitsILb1ELb0ELb1EEEEC2Ev
0000000000001a4c T __ZNSt8__detail16_Hashtable_allocISaINS_10_Hash_nodeISt4pairIKNSt7__cxx1112basic_stringIcSt11char_traitsIcESaIcEEE16JNLClassRegistryELb1EEEEE16_M_allocate_nodeIJRKSt21piecewise_construct_tSt5tupleIJOS8_EESJ_IJEEEEEPSC_DpOT_
0000000000001804 T __ZNSt8__detail16_Hashtable_allocISaINS_10_Hash_nodeISt4pairIKNSt7__cxx1112basic_stringIcSt11char_traitsIcESaIcEEE16JNLClassRegistryELb1EEEEE17_M_node_allocatorEv
000000000000136c T __ZNSt8__detail16_Hashtable_allocISaINS_10_Hash_nodeISt4pairIKNSt7__cxx1112basic_stringIcSt11char_traitsIcESaIcEEE16JNLClassRegistryELb1EEEEE18_M_deallocate_nodeEPSC_
0000000000002610 T __ZNSt8__detail16_Hashtable_allocISaINS_10_Hash_nodeISt4pairIKNSt7__cxx1112basic_stringIcSt11char_traitsIcESaIcEEE16JNLClassRegistryELb1EEEEE19_M_allocate_bucketsEm
0000000000000ef4 T __ZNSt8__detail16_Hashtable_allocISaINS_10_Hash_nodeISt4pairIKNSt7__cxx1112basic_stringIcSt11char_traitsIcESaIcEEE16JNLClassRegistryELb1EEEEE19_M_deallocate_nodesEPSC_
00000000000018c8 T __ZNSt8__detail16_Hashtable_allocISaINS_10_Hash_nodeISt4pairIKNSt7__cxx1112basic_stringIcSt11char_traitsIcESaIcEEE16JNLClassRegistryELb1EEEEE21_M_deallocate_bucketsEPPNS_15_Hash_node_baseEm
0000000000001818 T __ZNSt8__detail16_Hashtable_allocISaINS_10_Hash_nodeISt4pairIKNSt7__cxx1112basic_stringIcSt11char_traitsIcESaIcEEE16JNLClassRegistryELb1EEEEE22_M_deallocate_node_ptrEPSC_
00000000000004c8 T __ZNSt8__detail16_Hashtable_allocISaINS_10_Hash_nodeISt4pairIKNSt7__cxx1112basic_stringIcSt11char_traitsIcESaIcEEE16JNLClassRegistryELb1EEEEEC2Ev
00000000000004fc T __ZNSt8__detail16_Hashtable_allocISaINS_10_Hash_nodeISt4pairIKNSt7__cxx1112basic_stringIcSt11char_traitsIcESaIcEEE16JNLClassRegistryELb1EEEEED2Ev
0000000000001c14 T __ZNSt8__detail17_RehashStateGuardINS_20_Prime_rehash_policyEEC1ERS1_
0000000000001c58 T __ZNSt8__detail17_RehashStateGuardINS_20_Prime_rehash_policyEED1Ev
00000000000020bc T __ZNSt8__detail19_Node_iterator_baseISt4pairIKNSt7__cxx1112basic_stringIcSt11char_traitsIcESaIcEEE16JNLClassRegistryELb1EEC2EPNS_10_Hash_nodeISA_Lb1EEE
00000000000003a8 T __ZNSt8__detail20_Prime_rehash_policy8_M_resetEm
0000000000000364 T __ZNSt8__detail20_Prime_rehash_policyC1Ef
00000000000004dc T __ZNSt8__detail21_Hashtable_ebo_helperISaINS_10_Hash_nodeISt4pairIKNSt7__cxx1112basic_stringIcSt11char_traitsIcESaIcEEE16JNLClassRegistryELb1EEEELb1EED1Ev
00000000000026c8 T __ZNSt8__detail22_Hashtable_hash_traitsISt4hashINSt7__cxx1112basic_stringIcSt11char_traitsIcESaIcEEEEE22__small_size_thresholdEv
0000000000000f78 T __ZNSt8__detail9_Map_baseINSt7__cxx1112basic_stringIcSt11char_traitsIcESaIcEEESt4pairIKS6_16JNLClassRegistryESaISA_ENS_10_Select1stESt8equal_toIS6_ESt4hashIS6_ENS_18_Mod_range_hashingENS_20_Default_ranged_hashENS_20_Prime_rehash_policyENS_17_Hashtable_traitsILb1ELb0ELb1EEELb1EEixEOS6_
0000000000000718 T __ZNSt8__detaileqERKNS_14_Node_iteratorISt4pairIKNSt7__cxx1112basic_stringIcSt11char_traitsIcESaIcEEE16JNLClassRegistryELb0ELb1EEESD_
0000000000000b80 T __ZNSt8__detaileqERKNS_19_Node_iterator_baseISt4pairIKNSt7__cxx1112basic_stringIcSt11char_traitsIcESaIcEEE16JNLClassRegistryELb1EEESD_
                 U __ZNSt8ios_base4InitC1Ev
                 U __ZNSt8ios_base4InitD1Ev
000000000000005c T __ZNSt9bad_allocC1Ev
0000000000000028 T __ZNSt9bad_allocC2Ev
                 U __ZNSt9bad_allocD1Ev
0000000000000000 T __ZNSt9exceptionC2Ev
0000000000002114 T __ZSt10destroy_atISt4pairIKNSt7__cxx1112basic_stringIcSt11char_traitsIcESaIcEEE16JNLClassRegistryEEvPT_
                 U __ZSt11_Hash_bytesPKvmm
0000000000002b88 T __ZSt12__get_helperILm0EONSt7__cxx1112basic_stringIcSt11char_traitsIcESaIcEEEJEERT0_RSt11_Tuple_implIXT_EJS7_DpT1_EE
0000000000002528 T __ZSt12construct_atISt4pairIKNSt7__cxx1112basic_stringIcSt11char_traitsIcESaIcEEE16JNLClassRegistryEJRKSt21piecewise_construct_tSt5tupleIJOS6_EESD_IJEEEQaant20is_unbounded_array_vIT_ErqXgsnwcvPvLi0E_SH_pispcl7declvalIT0_EEEEEPSH_SK_DpOSJ_
00000000000014cc T __ZSt16forward_as_tupleIJNSt7__cxx1112basic_stringIcSt11char_traitsIcESaIcEEEEESt5tupleIJDpOT_EES9_
                 U __ZSt19__throw_logic_errorPKc
0000000000002bd8 S __ZSt19piecewise_construct
                 U __ZSt20__throw_length_errorPKc
0000000000002a88 T __ZSt3getILm0EJONSt7__cxx1112basic_stringIcSt11char_traitsIcESaIcEEEEERNSt13tuple_elementIXT_ESt5tupleIJDpT0_EEE4typeERSB_
00000000000003cc T __ZSt3minImERKT_S2_S2_
0000000000005510 b __ZStL8__ioinit
0000000000002980 T __ZSteqIcSt11char_traitsIcESaIcEEbRKNSt7__cxx1112basic_stringIT_T0_T1_EESA_
                 U __ZTISt20bad_array_new_length
                 U __ZTISt9bad_alloc
                 U __ZTVSt20bad_array_new_length
                 U __ZTVSt9bad_alloc
                 U __ZTVSt9exception
0000000000005518 b __ZZN3jnl19get_global_registryB5cxx11EvE8registry
0000000000000d8c T __ZZNSt7__cxx1112basic_stringIcSt11char_traitsIcESaIcEE12_M_constructIPKcEEvT_S8_St20forward_iterator_tagEN6_GuardC1EPS4_
0000000000000db0 T __ZZNSt7__cxx1112basic_stringIcSt11char_traitsIcESaIcEE12_M_constructIPKcEEvT_S8_St20forward_iterator_tagEN6_GuardD1Ev
00000000000000dc T __ZdlPvS_
                 U __ZdlPvm
                 U __Znwm
00000000000000c4 T __ZnwmPv
                 U ___cxa_allocate_exception
                 U ___cxa_atexit
                 U ___cxa_begin_catch
                 U ___cxa_end_catch
                 U ___cxa_guard_acquire
                 U ___cxa_guard_release
                 U ___cxa_rethrow
                 U ___cxa_throw
                 U ___dso_handle
                 U ___emutls_get_address
0000000000002bd9 s ___emutls_t.jnl_tls_error
0000000000003148 D ___emutls_v.jnl_tls_error
                 U ___gxx_personality_v0
                 U _free
                 U _memcmp
                 U _memcpy
                 U _memset
                 U _strlen
                 U _strncpy
0000000000000000 t ltmp0
0000000000002bd8 s ltmp1
0000000000005510 b ltmp2
0000000000002fdc s ltmp3
00000000000030a8 s ltmp4
00000000000030f8 s ltmp5
0000000000003148 d ltmp6
0000000000003168 s ltmp7
0000000000005508 s ltmp8
